target datalayout = "e-m:e-p270:32:32-p271:32:32-p272:64:64-i64:64-i128:128-f80:128-n8:16:32:64-S128"
target triple = "x86_64-pc-linux-gnu"

%struct.uv__queue = type { ptr, ptr }
%"struct.lean::lean_uv_timer_object" = type { ptr, ptr, i64, i8, i32 }
%struct.uv_timer_s = type { ptr, ptr, i32, ptr, %struct.uv__queue, %union.anon.2, ptr, i32, ptr, %union.anon.3, i64, i64, i64 }
%union.anon.2 = type { [4 x ptr] }
%union.anon.3 = type { [3 x ptr] }
%struct.lean_promise = type { %struct.lean_object, ptr }
%struct.lean_object = type { i32, i32 }
%struct.lean_external_object = type { %struct.lean_object, ptr, ptr }

; Function Attrs: inlinehint mustprogress nounwind uwtable
define internal noundef ptr @_ZL16lean_to_externalP11lean_object(ptr noundef %0) #4 {
  %2 = alloca ptr, align 8
  store ptr %0, ptr %2, align 8, !tbaa !3
  %3 = load ptr, ptr %2, align 8, !tbaa !3
  ret ptr %3
}

; Function Attrs: alwaysinline mustprogress uwtable
define internal void @_ZL12lean_dec_refP11lean_object(ptr noundef %0) #2 {
  %2 = alloca ptr, align 8
  store ptr %0, ptr %2, align 8, !tbaa !3
  %3 = load ptr, ptr %2, align 8, !tbaa !3
  %4 = getelementptr inbounds nuw %struct.lean_object, ptr %3, i32 0, i32 0
  %5 = load i32, ptr %4, align 4, !tbaa !44
  %6 = icmp sgt i32 %5, 1
  %7 = zext i1 %6 to i64
  %8 = call i64 @llvm.expect.i64(i64 %7, i64 1)
  %9 = icmp ne i64 %8, 0
  br i1 %9, label %10, label %15

10:                                               ; preds = %1
  %11 = load ptr, ptr %2, align 8, !tbaa !3
  %12 = getelementptr inbounds nuw %struct.lean_object, ptr %11, i32 0, i32 0
  %13 = load i32, ptr %12, align 4, !tbaa !44
  %14 = add nsw i32 %13, -1
  store i32 %14, ptr %12, align 4, !tbaa !44
  br label %23

15:                                               ; preds = %1
  %16 = load ptr, ptr %2, align 8, !tbaa !3
  %17 = getelementptr inbounds nuw %struct.lean_object, ptr %16, i32 0, i32 0
  %18 = load i32, ptr %17, align 4, !tbaa !44
  %19 = icmp ne i32 %18, 0
  br i1 %19, label %20, label %22

20:                                               ; preds = %15
  %21 = load ptr, ptr %2, align 8, !tbaa !3
  call void @lean_dec_ref_cold(ptr noundef %21)
  br label %22

22:                                               ; preds = %20, %15
  br label %23

23:                                               ; preds = %22, %10
  ret void
}

; Function Attrs: alwaysinline mustprogress nounwind uwtable
define internal noundef zeroext i1 @_ZL14lean_is_scalarP11lean_object(ptr noundef %0) #8 {
  %2 = alloca ptr, align 8
  store ptr %0, ptr %2, align 8, !tbaa !3
  %3 = load ptr, ptr %2, align 8, !tbaa !3
  %4 = ptrtoint ptr %3 to i64
  %5 = and i64 %4, 1
  %6 = icmp eq i64 %5, 1
  ret i1 %6
}

; Function Attrs: inlinehint mustprogress nounwind uwtable
define internal noundef ptr @_ZL15lean_to_promiseP11lean_object(ptr noundef %0) #4 {
  %2 = alloca ptr, align 8
  store ptr %0, ptr %2, align 8, !tbaa !3
  %3 = load ptr, ptr %2, align 8, !tbaa !3
  ret ptr %3
}

; Function Attrs: inlinehint mustprogress uwtable
define internal noundef ptr @_ZL22lean_get_external_dataP11lean_object(ptr noundef %0) #6 {
  %2 = alloca ptr, align 8
  store ptr %0, ptr %2, align 8, !tbaa !3
  %3 = load ptr, ptr %2, align 8, !tbaa !3
  %4 = call noundef ptr @_ZL16lean_to_externalP11lean_object(ptr noundef %3)
  %5 = getelementptr inbounds nuw %struct.lean_external_object, ptr %4, i32 0, i32 2
  %6 = load ptr, ptr %5, align 8, !tbaa !46
  ret ptr %6
}

; Function Attrs: alwaysinline mustprogress uwtable
define internal void @_ZL8lean_decP11lean_object(ptr noundef %0) #2 {
  %2 = alloca ptr, align 8
  store ptr %0, ptr %2, align 8, !tbaa !3
  %3 = load ptr, ptr %2, align 8, !tbaa !3
  %4 = call noundef zeroext i1 @_ZL14lean_is_scalarP11lean_object(ptr noundef %3)
  br i1 %4, label %7, label %5

5:                                                ; preds = %1
  %6 = load ptr, ptr %2, align 8, !tbaa !3
  call void @_ZL12lean_dec_refP11lean_object(ptr noundef %6)
  br label %7

7:                                                ; preds = %5, %1
  ret void
}

; Function Attrs: inlinehint mustprogress nounwind uwtable
define internal noundef ptr @_ZL16lean_io_mk_worldv() #4 {
  %1 = call noundef ptr @_ZL8lean_boxm(i64 noundef 0)
  ret ptr %1
}

; Function Attrs: inlinehint mustprogress nounwind uwtable
define internal noundef ptr @_ZL8lean_boxm(i64 noundef %0) #4 {
  %2 = alloca i64, align 8
  store i64 %0, ptr %2, align 8, !tbaa !31
  %3 = load i64, ptr %2, align 8, !tbaa !31
  %4 = shl i64 %3, 1
  %5 = or i64 %4, 1
  %6 = inttoptr i64 %5 to ptr
  ret ptr %6
}

; Function Attrs: mustprogress uwtable
define internal noundef zeroext i1 @_ZN4leanL25timer_promise_is_finishedEPNS_20lean_uv_timer_objectE(ptr noundef %0) #0 {
  %2 = alloca ptr, align 8
  store ptr %0, ptr %2, align 8, !tbaa !3
  %3 = load ptr, ptr %2, align 8, !tbaa !3
  %4 = getelementptr inbounds nuw %"struct.lean::lean_uv_timer_object", ptr %3, i32 0, i32 1
  %5 = load ptr, ptr %4, align 8, !tbaa !7
  %6 = call noundef ptr @_ZL15lean_to_promiseP11lean_object(ptr noundef %5)
  %7 = getelementptr inbounds nuw %struct.lean_promise, ptr %6, i32 0, i32 1
  %8 = load ptr, ptr %7, align 8, !tbaa !27
  %9 = call zeroext i8 @lean_io_get_task_state_core(ptr noundef %8)
  %10 = zext i8 %9 to i32
  %11 = icmp eq i32 %10, 2
  ret i1 %11
}

; Function Attrs: inlinehint mustprogress uwtable
define internal noundef ptr @_ZN4leanL16lean_to_uv_timerEP11lean_object(ptr noundef %0) #6 {
  %2 = alloca ptr, align 8
  store ptr %0, ptr %2, align 8, !tbaa !3
  %3 = load ptr, ptr %2, align 8, !tbaa !3
  %4 = call noundef ptr @_ZL22lean_get_external_dataP11lean_object(ptr noundef %3)
  ret ptr %4
}

; Function Attrs: mustprogress uwtable
define hidden void @_ZN4lean18handle_timer_eventEP10uv_timer_s(ptr noundef %0) #0 {
  %2 = alloca ptr, align 8
  %3 = alloca ptr, align 8
  %4 = alloca ptr, align 8
  %5 = alloca ptr, align 8
  %6 = alloca ptr, align 8
  store ptr %0, ptr %2, align 8, !tbaa !14
  call void @llvm.lifetime.start.p0(i64 8, ptr %3) #11
  %7 = load ptr, ptr %2, align 8, !tbaa !14
  %8 = getelementptr inbounds nuw %struct.uv_timer_s, ptr %7, i32 0, i32 0
  %9 = load ptr, ptr %8, align 8, !tbaa !15
  store ptr %9, ptr %3, align 8, !tbaa !3
  call void @llvm.lifetime.start.p0(i64 8, ptr %4) #11
  %10 = load ptr, ptr %3, align 8, !tbaa !3
  %11 = call noundef ptr @_ZN4leanL16lean_to_uv_timerEP11lean_object(ptr noundef %10)
  store ptr %11, ptr %4, align 8, !tbaa !3
  %12 = load ptr, ptr %4, align 8, !tbaa !3
  %13 = getelementptr inbounds nuw %"struct.lean::lean_uv_timer_object", ptr %12, i32 0, i32 3
  %14 = load i8, ptr %13, align 8, !tbaa !23, !range !24, !noundef !25
  %15 = trunc i8 %14 to i1
  br i1 %15, label %16, label %28

16:                                               ; preds = %1
  %17 = load ptr, ptr %4, align 8, !tbaa !3
  %18 = call noundef zeroext i1 @_ZN4leanL25timer_promise_is_finishedEPNS_20lean_uv_timer_objectE(ptr noundef %17)
  br i1 %18, label %27, label %19

19:                                               ; preds = %16
  call void @llvm.lifetime.start.p0(i64 8, ptr %5) #11
  %20 = call noundef ptr @_ZL8lean_boxm(i64 noundef 0)
  %21 = load ptr, ptr %4, align 8, !tbaa !3
  %22 = getelementptr inbounds nuw %"struct.lean::lean_uv_timer_object", ptr %21, i32 0, i32 1
  %23 = load ptr, ptr %22, align 8, !tbaa !7
  %24 = call noundef ptr @_ZL16lean_io_mk_worldv()
  %25 = call ptr @lean_io_promise_resolve(ptr noundef %20, ptr noundef %23, ptr noundef %24)
  store ptr %25, ptr %5, align 8, !tbaa !3
  %26 = load ptr, ptr %5, align 8, !tbaa !3
  call void @_ZL8lean_decP11lean_object(ptr noundef %26)
  call void @llvm.lifetime.end.p0(i64 8, ptr %5) #11
  br label %27

27:                                               ; preds = %19, %16
  br label %43

28:                                               ; preds = %1
  %29 = load ptr, ptr %4, align 8, !tbaa !3
  %30 = getelementptr inbounds nuw %"struct.lean::lean_uv_timer_object", ptr %29, i32 0, i32 0
  %31 = load ptr, ptr %30, align 8, !tbaa !13
  %32 = call i32 @uv_timer_stop(ptr noundef %31)
  %33 = load ptr, ptr %4, align 8, !tbaa !3
  %34 = getelementptr inbounds nuw %"struct.lean::lean_uv_timer_object", ptr %33, i32 0, i32 4
  store i32 2, ptr %34, align 4, !tbaa !26
  call void @llvm.lifetime.start.p0(i64 8, ptr %6) #11
  %35 = call noundef ptr @_ZL8lean_boxm(i64 noundef 0)
  %36 = load ptr, ptr %4, align 8, !tbaa !3
  %37 = getelementptr inbounds nuw %"struct.lean::lean_uv_timer_object", ptr %36, i32 0, i32 1
  %38 = load ptr, ptr %37, align 8, !tbaa !7
  %39 = call noundef ptr @_ZL16lean_io_mk_worldv()
  %40 = call ptr @lean_io_promise_resolve(ptr noundef %35, ptr noundef %38, ptr noundef %39)
  store ptr %40, ptr %6, align 8, !tbaa !3
  %41 = load ptr, ptr %6, align 8, !tbaa !3
  call void @_ZL8lean_decP11lean_object(ptr noundef %41)
  %42 = load ptr, ptr %3, align 8, !tbaa !3
  call void @_ZL8lean_decP11lean_object(ptr noundef %42)
  call void @llvm.lifetime.end.p0(i64 8, ptr %6) #11
  br label %43

43:                                               ; preds = %28, %27
  call void @llvm.lifetime.end.p0(i64 8, ptr %4) #11
  call void @llvm.lifetime.end.p0(i64 8, ptr %3) #11
  ret void
}