; Function Attrs: mustprogress uwtable
define hidden void @_ZN4lean18handle_timer_eventEP10uv_timer_s(ptr noundef readonly captures(none) %0) #0 {
  %2 = load ptr, ptr %0, align 8, !tbaa !18
  %3 = getelementptr i8, ptr %2, i64 16
  %.val = load ptr, ptr %3, align 8, !tbaa !25
  %4 = getelementptr inbounds nuw i8, ptr %.val, i64 24
  %5 = load i8, ptr %4, align 8, !tbaa !27, !range !28, !noundef !29
  %6 = trunc nuw i8 %5 to i1
  br i1 %6, label %7, label %24

7:                                                ; preds = %1
  %8 = getelementptr i8, ptr %.val, i64 8
  %.val17 = load ptr, ptr %8, align 8, !tbaa !3
  %9 = getelementptr i8, ptr %.val17, i64 8
  %.val17.val = load ptr, ptr %9, align 8, !tbaa !30
  %10 = tail call zeroext i8 @lean_io_get_task_state_core(ptr noundef %.val17.val)
  %11 = icmp eq i8 %10, 2
  br i1 %11, label %_ZL8lean_decP11lean_object.exit12, label %12

12:                                               ; preds = %7
  %13 = load ptr, ptr %8, align 8, !tbaa !3
  %14 = tail call ptr @lean_io_promise_resolve(ptr noundef nonnull inttoptr (i64 1 to ptr), ptr noundef %13, ptr noundef nonnull inttoptr (i64 1 to ptr))
  %15 = ptrtoint ptr %14 to i64
  %16 = and i64 %15, 1
  %.not19 = icmp eq i64 %16, 0
  br i1 %.not19, label %17, label %_ZL8lean_decP11lean_object.exit12

17:                                               ; preds = %12
  %18 = load i32, ptr %14, align 4, !tbaa !12
  %19 = icmp sgt i32 %18, 1
  br i1 %19, label %20, label %22, !prof !15

20:                                               ; preds = %17
  %21 = add nsw i32 %18, -1
  store i32 %21, ptr %14, align 4, !tbaa !12
  br label %_ZL8lean_decP11lean_object.exit12

22:                                               ; preds = %17
  %.not.i = icmp eq i32 %18, 0
  br i1 %.not.i, label %_ZL8lean_decP11lean_object.exit12, label %23

23:                                               ; preds = %22
  tail call void @lean_dec_ref_cold(ptr noundef nonnull %14)
  br label %_ZL8lean_decP11lean_object.exit12

24:                                               ; preds = %1
  %25 = load ptr, ptr %.val, align 8, !tbaa !16
  %26 = tail call i32 @uv_timer_stop(ptr noundef %25)
  %27 = getelementptr inbounds nuw i8, ptr %.val, i64 28
  store i32 2, ptr %27, align 4, !tbaa !33
  %28 = getelementptr inbounds nuw i8, ptr %.val, i64 8
  %29 = load ptr, ptr %28, align 8, !tbaa !3
  %30 = tail call ptr @lean_io_promise_resolve(ptr noundef nonnull inttoptr (i64 1 to ptr), ptr noundef %29, ptr noundef nonnull inttoptr (i64 1 to ptr))
  %31 = ptrtoint ptr %30 to i64
  %32 = and i64 %31, 1
  %.not = icmp eq i64 %32, 0
  br i1 %.not, label %33, label %_ZL8lean_decP11lean_object.exit11

33:                                               ; preds = %24
  %34 = load i32, ptr %30, align 4, !tbaa !12
  %35 = icmp sgt i32 %34, 1
  br i1 %35, label %36, label %38, !prof !15

36:                                               ; preds = %33
  %37 = add nsw i32 %34, -1
  store i32 %37, ptr %30, align 4, !tbaa !12
  br label %_ZL8lean_decP11lean_object.exit11

38:                                               ; preds = %33
  %.not.i13 = icmp eq i32 %34, 0
  br i1 %.not.i13, label %_ZL8lean_decP11lean_object.exit11, label %39

39:                                               ; preds = %38
  tail call void @lean_dec_ref_cold(ptr noundef nonnull %30)
  br label %_ZL8lean_decP11lean_object.exit11

_ZL8lean_decP11lean_object.exit11:                ; preds = %39, %38, %36, %24
  %40 = ptrtoint ptr %2 to i64
  %41 = and i64 %40, 1
  %.not18 = icmp eq i64 %41, 0
  br i1 %.not18, label %42, label %_ZL8lean_decP11lean_object.exit12

42:                                               ; preds = %_ZL8lean_decP11lean_object.exit11
  %43 = load i32, ptr %2, align 4, !tbaa !12
  %44 = icmp sgt i32 %43, 1
  br i1 %44, label %45, label %47, !prof !15

45:                                               ; preds = %42
  %46 = add nsw i32 %43, -1
  store i32 %46, ptr %2, align 4, !tbaa !12
  br label %_ZL8lean_decP11lean_object.exit12

47:                                               ; preds = %42
  %.not.i15 = icmp eq i32 %43, 0
  br i1 %.not.i15, label %_ZL8lean_decP11lean_object.exit12, label %48

48:                                               ; preds = %47
  tail call void @lean_dec_ref_cold(ptr noundef nonnull %2)
  br label %_ZL8lean_decP11lean_object.exit12

_ZL8lean_decP11lean_object.exit12:                ; preds = %_ZL8lean_decP11lean_object.exit11, %45, %47, %48, %12, %20, %22, %23, %7
  ret void
}